; ModuleID = '52/581.c'
source_filename = "52/581.c"
target datalayout = "e-m:e-p270:32:32-p271:32:32-p272:64:64-i64:64-f80:128-n8:16:32:64-S128"
target triple = "x86_64-pc-linux-gnu"

@.str = private unnamed_addr constant [5 x i8] c"%d%d\00", align 1
@.str.1 = private unnamed_addr constant [3 x i8] c"%d\00", align 1
@.str.2 = private unnamed_addr constant [4 x i8] c" %d\00", align 1

; Function Attrs: noinline nounwind uwtable
define dso_local i32 @main(i32 %0, i8** %1) #0 {
  %3 = alloca i32, align 4
  %4 = alloca i32, align 4
  %5 = alloca i8**, align 8
  %6 = alloca i32, align 4
  %7 = alloca i32, align 4
  %8 = alloca i32, align 4
  %9 = alloca i32, align 4
  %10 = alloca i32, align 4
  %11 = alloca i32, align 4
  %12 = alloca i32, align 4
  %13 = alloca [100 x i32], align 16
  store i32 0, i32* %3, align 4
  store i32 %0, i32* %4, align 4
  store i8** %1, i8*** %5, align 8
  %14 = call i32 (i8*, ...) @__isoc99_scanf(i8* getelementptr inbounds ([5 x i8], [5 x i8]* @.str, i64 0, i64 0), i32* %6, i32* %7)
  store i32 0, i32* %8, align 4
  br label %15

15:                                               ; preds = %24, %2
  %16 = load i32, i32* %8, align 4
  %17 = load i32, i32* %6, align 4
  %18 = icmp slt i32 %16, %17
  br i1 %18, label %19, label %27

19:                                               ; preds = %15
  %20 = load i32, i32* %8, align 4
  %21 = sext i32 %20 to i64
  %22 = getelementptr inbounds [100 x i32], [100 x i32]* %13, i64 0, i64 %21
  %23 = call i32 (i8*, ...) @__isoc99_scanf(i8* getelementptr inbounds ([3 x i8], [3 x i8]* @.str.1, i64 0, i64 0), i32* %22)
  br label %24

24:                                               ; preds = %19
  %25 = load i32, i32* %8, align 4
  %26 = add nsw i32 %25, 1
  store i32 %26, i32* %8, align 4
  br label %15

27:                                               ; preds = %15
  store i32 0, i32* %9, align 4
  br label %28

28:                                               ; preds = %58, %27
  %29 = load i32, i32* %9, align 4
  %30 = load i32, i32* %7, align 4
  %31 = icmp slt i32 %29, %30
  br i1 %31, label %32, label %61

32:                                               ; preds = %28
  %33 = load i32, i32* %6, align 4
  %34 = sub nsw i32 %33, 1
  %35 = sext i32 %34 to i64
  %36 = getelementptr inbounds [100 x i32], [100 x i32]* %13, i64 0, i64 %35
  %37 = load i32, i32* %36, align 4
  store i32 %37, i32* %10, align 4
  %38 = load i32, i32* %6, align 4
  %39 = sub nsw i32 %38, 2
  store i32 %39, i32* %11, align 4
  br label %40

40:                                               ; preds = %52, %32
  %41 = load i32, i32* %11, align 4
  %42 = icmp sge i32 %41, 0
  br i1 %42, label %43, label %55

43:                                               ; preds = %40
  %44 = load i32, i32* %11, align 4
  %45 = sext i32 %44 to i64
  %46 = getelementptr inbounds [100 x i32], [100 x i32]* %13, i64 0, i64 %45
  %47 = load i32, i32* %46, align 4
  %48 = load i32, i32* %11, align 4
  %49 = add nsw i32 %48, 1
  %50 = sext i32 %49 to i64
  %51 = getelementptr inbounds [100 x i32], [100 x i32]* %13, i64 0, i64 %50
  store i32 %47, i32* %51, align 4
  br label %52

52:                                               ; preds = %43
  %53 = load i32, i32* %11, align 4
  %54 = add nsw i32 %53, -1
  store i32 %54, i32* %11, align 4
  br label %40

55:                                               ; preds = %40
  %56 = load i32, i32* %10, align 4
  %57 = getelementptr inbounds [100 x i32], [100 x i32]* %13, i64 0, i64 0
  store i32 %56, i32* %57, align 16
  br label %58

58:                                               ; preds = %55
  %59 = load i32, i32* %9, align 4
  %60 = add nsw i32 %59, 1
  store i32 %60, i32* %9, align 4
  br label %28

61:                                               ; preds = %28
  store i32 0, i32* %12, align 4
  br label %62

62:                                               ; preds = %82, %61
  %63 = load i32, i32* %12, align 4
  %64 = load i32, i32* %6, align 4
  %65 = icmp slt i32 %63, %64
  br i1 %65, label %66, label %85

66:                                               ; preds = %62
  %67 = load i32, i32* %12, align 4
  %68 = icmp sgt i32 %67, 0
  br i1 %68, label %69, label %75

69:                                               ; preds = %66
  %70 = load i32, i32* %12, align 4
  %71 = sext i32 %70 to i64
  %72 = getelementptr inbounds [100 x i32], [100 x i32]* %13, i64 0, i64 %71
  %73 = load i32, i32* %72, align 4
  %74 = call i32 (i8*, ...) @printf(i8* getelementptr inbounds ([4 x i8], [4 x i8]* @.str.2, i64 0, i64 0), i32 %73)
  br label %81

75:                                               ; preds = %66
  %76 = load i32, i32* %12, align 4
  %77 = sext i32 %76 to i64
  %78 = getelementptr inbounds [100 x i32], [100 x i32]* %13, i64 0, i64 %77
  %79 = load i32, i32* %78, align 4
  %80 = call i32 (i8*, ...) @printf(i8* getelementptr inbounds ([3 x i8], [3 x i8]* @.str.1, i64 0, i64 0), i32 %79)
  br label %81

81:                                               ; preds = %75, %69
  br label %82

82:                                               ; preds = %81
  %83 = load i32, i32* %12, align 4
  %84 = add nsw i32 %83, 1
  store i32 %84, i32* %12, align 4
  br label %62

85:                                               ; preds = %62
  ret i32 0
}

declare dso_local i32 @__isoc99_scanf(i8*, ...) #1

declare dso_local i32 @printf(i8*, ...) #1


!llvm.module.flags = !{!0}
!llvm.ident = !{!1}

!0 = !{i32 1, !"wchar_size", i32 4}
!1 = !{!"clang version 10.0.0-4ubuntu1 "}
